; ModuleID = '28/68.c'
source_filename = "28/68.c"
target datalayout = "e-m:e-p270:32:32-p271:32:32-p272:64:64-i64:64-f80:128-n8:16:32:64-S128"
target triple = "x86_64-pc-linux-gnu"

@.str = private unnamed_addr constant [4 x i8] c"%d,\00", align 1
@.str.1 = private unnamed_addr constant [3 x i8] c"%d\00", align 1

; Function Attrs: noinline nounwind uwtable
define dso_local void @main() #0 {
  %1 = alloca [1000 x i8], align 16
  %2 = alloca i32, align 4
  %3 = alloca i32, align 4
  %4 = alloca i32, align 4
  %5 = alloca i32, align 4
  %6 = alloca i32, align 4
  %7 = alloca [100 x i32], align 16
  %8 = getelementptr inbounds [1000 x i8], [1000 x i8]* %1, i64 0, i64 0
  %9 = call i32 (i8*, ...) bitcast (i32 (...)* @gets to i32 (i8*, ...)*)(i8* %8)
  %10 = getelementptr inbounds [1000 x i8], [1000 x i8]* %1, i64 0, i64 0
  %11 = call i64 @strlen(i8* %10) #3
  %12 = trunc i64 %11 to i32
  store i32 %12, i32* %3, align 4
  %13 = load i32, i32* %3, align 4
  %14 = sext i32 %13 to i64
  %15 = getelementptr inbounds [1000 x i8], [1000 x i8]* %1, i64 0, i64 %14
  store i8 0, i8* %15, align 1
  store i32 0, i32* %2, align 4
  store i32 0, i32* %4, align 4
  br label %16

16:                                               ; preds = %63, %0
  %17 = load i32, i32* %2, align 4
  %18 = load i32, i32* %3, align 4
  %19 = icmp sle i32 %17, %18
  br i1 %19, label %20, label %66

20:                                               ; preds = %16
  %21 = load i32, i32* %2, align 4
  %22 = sext i32 %21 to i64
  %23 = getelementptr inbounds [1000 x i8], [1000 x i8]* %1, i64 0, i64 %22
  %24 = load i8, i8* %23, align 1
  %25 = sext i8 %24 to i32
  %26 = icmp ne i32 %25, 32
  br i1 %26, label %27, label %62

27:                                               ; preds = %20
  %28 = load i32, i32* %4, align 4
  %29 = sext i32 %28 to i64
  %30 = getelementptr inbounds [100 x i32], [100 x i32]* %7, i64 0, i64 %29
  store i32 0, i32* %30, align 4
  br label %31

31:                                               ; preds = %58, %27
  %32 = load i32, i32* %2, align 4
  %33 = sext i32 %32 to i64
  %34 = getelementptr inbounds [1000 x i8], [1000 x i8]* %1, i64 0, i64 %33
  %35 = load i8, i8* %34, align 1
  %36 = sext i8 %35 to i32
  %37 = icmp ne i32 %36, 32
  br i1 %37, label %38, label %54

38:                                               ; preds = %31
  %39 = load i32, i32* %2, align 4
  %40 = sext i32 %39 to i64
  %41 = getelementptr inbounds [1000 x i8], [1000 x i8]* %1, i64 0, i64 %40
  %42 = load i8, i8* %41, align 1
  %43 = sext i8 %42 to i32
  %44 = icmp ne i32 %43, 0
  br i1 %44, label %45, label %54

45:                                               ; preds = %38
  %46 = load i32, i32* %4, align 4
  %47 = sext i32 %46 to i64
  %48 = getelementptr inbounds [100 x i32], [100 x i32]* %7, i64 0, i64 %47
  %49 = load i32, i32* %48, align 4
  %50 = add nsw i32 %49, 1
  %51 = load i32, i32* %4, align 4
  %52 = sext i32 %51 to i64
  %53 = getelementptr inbounds [100 x i32], [100 x i32]* %7, i64 0, i64 %52
  store i32 %50, i32* %53, align 4
  br label %57

54:                                               ; preds = %38, %31
  %55 = load i32, i32* %4, align 4
  %56 = add nsw i32 %55, 1
  store i32 %56, i32* %4, align 4
  br label %61

57:                                               ; preds = %45
  br label %58

58:                                               ; preds = %57
  %59 = load i32, i32* %2, align 4
  %60 = add nsw i32 %59, 1
  store i32 %60, i32* %2, align 4
  br label %31

61:                                               ; preds = %54
  br label %62

62:                                               ; preds = %61, %20
  br label %63

63:                                               ; preds = %62
  %64 = load i32, i32* %2, align 4
  %65 = add nsw i32 %64, 1
  store i32 %65, i32* %2, align 4
  br label %16

66:                                               ; preds = %16
  store i32 0, i32* %6, align 4
  br label %67

67:                                               ; preds = %78, %66
  %68 = load i32, i32* %6, align 4
  %69 = load i32, i32* %4, align 4
  %70 = sub nsw i32 %69, 1
  %71 = icmp slt i32 %68, %70
  br i1 %71, label %72, label %81

72:                                               ; preds = %67
  %73 = load i32, i32* %6, align 4
  %74 = sext i32 %73 to i64
  %75 = getelementptr inbounds [100 x i32], [100 x i32]* %7, i64 0, i64 %74
  %76 = load i32, i32* %75, align 4
  %77 = call i32 (i8*, ...) @printf(i8* getelementptr inbounds ([4 x i8], [4 x i8]* @.str, i64 0, i64 0), i32 %76)
  br label %78

78:                                               ; preds = %72
  %79 = load i32, i32* %6, align 4
  %80 = add nsw i32 %79, 1
  store i32 %80, i32* %6, align 4
  br label %67

81:                                               ; preds = %67
  %82 = load i32, i32* %4, align 4
  %83 = sub nsw i32 %82, 1
  %84 = sext i32 %83 to i64
  %85 = getelementptr inbounds [100 x i32], [100 x i32]* %7, i64 0, i64 %84
  %86 = load i32, i32* %85, align 4
  %87 = call i32 (i8*, ...) @printf(i8* getelementptr inbounds ([3 x i8], [3 x i8]* @.str.1, i64 0, i64 0), i32 %86)
  ret void
}

declare dso_local i32 @gets(...) #1

; Function Attrs: nounwind readonly
declare dso_local i64 @strlen(i8*) #2

declare dso_local i32 @printf(i8*, ...) #1


!llvm.module.flags = !{!0}
!llvm.ident = !{!1}

!0 = !{i32 1, !"wchar_size", i32 4}
!1 = !{!"clang version 10.0.0-4ubuntu1 "}
