; ModuleID = 'source-C-CXX/27/68.c'
source_filename = "source-C-CXX/27/68.c"
target datalayout = "e-m:e-p270:32:32-p271:32:32-p272:64:64-i64:64-f80:128-n8:16:32:64-S128"
target triple = "x86_64-pc-linux-gnu"

@.str = private unnamed_addr constant [4 x i8] c"%d,\00", align 1
@.str.1 = private unnamed_addr constant [3 x i8] c"%d\00", align 1

; Function Attrs: nounwind sspstrong uwtable
define dso_local void @main() local_unnamed_addr #0 {
  %1 = alloca [1000 x i8], align 16
  %2 = alloca [100 x i32], align 16
  %3 = getelementptr inbounds [1000 x i8], [1000 x i8]* %1, i64 0, i64 0
  call void @llvm.lifetime.start.p0i8(i64 1000, i8* nonnull %3) #5
  %4 = bitcast [100 x i32]* %2 to i8*
  call void @llvm.lifetime.start.p0i8(i64 400, i8* nonnull %4) #5
  %5 = call i32 (i8*, ...) bitcast (i32 (...)* @gets to i32 (i8*, ...)*)(i8* nonnull %3) #5
  %6 = call i64 @strlen(i8* noundef nonnull %3) #6
  %7 = trunc i64 %6 to i32
  %8 = shl i64 %6, 32
  %9 = ashr exact i64 %8, 32
  %10 = getelementptr inbounds [1000 x i8], [1000 x i8]* %1, i64 0, i64 %9
  store i8 0, i8* %10, align 1, !tbaa !5
  %11 = icmp slt i32 %7, 0
  br i1 %11, label %51, label %17

12:                                               ; preds = %39
  %13 = add i32 %40, -1
  %14 = icmp sgt i32 %40, 1
  br i1 %14, label %15, label %51

15:                                               ; preds = %12
  %16 = zext i32 %13 to i64
  br label %44

17:                                               ; preds = %0, %39
  %18 = phi i32 [ %42, %39 ], [ 0, %0 ]
  %19 = phi i32 [ %40, %39 ], [ 0, %0 ]
  %20 = sext i32 %18 to i64
  %21 = getelementptr inbounds [1000 x i8], [1000 x i8]* %1, i64 0, i64 %20
  %22 = load i8, i8* %21, align 1, !tbaa !5
  %23 = icmp eq i8 %22, 32
  br i1 %23, label %39, label %24

24:                                               ; preds = %17
  %25 = sext i32 %19 to i64
  %26 = getelementptr inbounds [100 x i32], [100 x i32]* %2, i64 0, i64 %25
  store i32 0, i32* %26, align 4, !tbaa !8
  br label %27

27:                                               ; preds = %31, %24
  %28 = phi i32 [ %32, %31 ], [ 0, %24 ]
  %29 = phi i8 [ %35, %31 ], [ %22, %24 ]
  %30 = phi i64 [ %33, %31 ], [ %20, %24 ]
  switch i8 %29, label %31 [
    i8 32, label %36
    i8 0, label %36
  ]

31:                                               ; preds = %27
  %32 = add nuw nsw i32 %28, 1
  store i32 %32, i32* %26, align 4, !tbaa !8
  %33 = add i64 %30, 1
  %34 = getelementptr inbounds [1000 x i8], [1000 x i8]* %1, i64 0, i64 %33
  %35 = load i8, i8* %34, align 1, !tbaa !5
  br label %27

36:                                               ; preds = %27, %27
  %37 = trunc i64 %30 to i32
  %38 = add nsw i32 %19, 1
  br label %39

39:                                               ; preds = %17, %36
  %40 = phi i32 [ %38, %36 ], [ %19, %17 ]
  %41 = phi i32 [ %37, %36 ], [ %18, %17 ]
  %42 = add nsw i32 %41, 1
  %43 = icmp slt i32 %41, %7
  br i1 %43, label %17, label %12, !llvm.loop !10

44:                                               ; preds = %15, %44
  %45 = phi i64 [ 0, %15 ], [ %49, %44 ]
  %46 = getelementptr inbounds [100 x i32], [100 x i32]* %2, i64 0, i64 %45
  %47 = load i32, i32* %46, align 4, !tbaa !8
  %48 = call i32 (i8*, ...) @printf(i8* nonnull dereferenceable(1) getelementptr inbounds ([4 x i8], [4 x i8]* @.str, i64 0, i64 0), i32 %47)
  %49 = add nuw nsw i64 %45, 1
  %50 = icmp eq i64 %49, %16
  br i1 %50, label %51, label %44, !llvm.loop !12

51:                                               ; preds = %44, %0, %12
  %52 = phi i32 [ %13, %12 ], [ -1, %0 ], [ %13, %44 ]
  %53 = sext i32 %52 to i64
  %54 = getelementptr inbounds [100 x i32], [100 x i32]* %2, i64 0, i64 %53
  %55 = load i32, i32* %54, align 4, !tbaa !8
  %56 = call i32 (i8*, ...) @printf(i8* nonnull dereferenceable(1) getelementptr inbounds ([3 x i8], [3 x i8]* @.str.1, i64 0, i64 0), i32 %55)
  call void @llvm.lifetime.end.p0i8(i64 400, i8* nonnull %4) #5
  call void @llvm.lifetime.end.p0i8(i64 1000, i8* nonnull %3) #5
  ret void
}

; Function Attrs: argmemonly mustprogress nofree nosync nounwind willreturn
declare void @llvm.lifetime.start.p0i8(i64 immarg, i8* nocapture) #1

declare i32 @gets(...) local_unnamed_addr #2

; Function Attrs: argmemonly mustprogress nofree nounwind readonly willreturn
declare i64 @strlen(i8* nocapture) local_unnamed_addr #3

; Function Attrs: nofree nounwind
declare noundef i32 @printf(i8* nocapture noundef readonly, ...) local_unnamed_addr #4

; Function Attrs: argmemonly mustprogress nofree nosync nounwind willreturn
declare void @llvm.lifetime.end.p0i8(i64 immarg, i8* nocapture) #1


!llvm.module.flags = !{!0, !1, !2, !3}
!llvm.ident = !{!4}

!0 = !{i32 1, !"wchar_size", i32 4}
!1 = !{i32 7, !"PIC Level", i32 2}
!2 = !{i32 7, !"PIE Level", i32 2}
!3 = !{i32 7, !"uwtable", i32 1}
!4 = !{!"clang version 13.0.0"}
!5 = !{!6, !6, i64 0}
!6 = !{!"omnipotent char", !7, i64 0}
!7 = !{!"Simple C/C++ TBAA"}
!8 = !{!9, !9, i64 0}
!9 = !{!"int", !6, i64 0}
!10 = distinct !{!10, !11}
!11 = !{!"llvm.loop.mustprogress"}
!12 = distinct !{!12, !11}
